; Function Attrs: nounwind uwtable
define ptr @l_Lean_PersistentHashMap_insertAux_traverse___rarg___boxed(ptr noundef %0, ptr noundef %1, ptr noundef %2, ptr noundef %3, ptr noundef %4, ptr readnone captures(none) %5, ptr noundef %6, ptr noundef %7) #2 {
  %9 = getelementptr i8, ptr %2, i64 8
  %.val = load i64, ptr %9, align 8, !tbaa !12
  %10 = ptrtoint ptr %2 to i64
  %11 = and i64 %10, 1
  %.not = icmp eq i64 %11, 0
  br i1 %.not, label %12, label %lean_dec.exit13

12:                                               ; preds = %8
  %13 = load i32, ptr %2, align 4, !tbaa !4
  %14 = icmp sgt i32 %13, 1
  br i1 %14, label %15, label %17, !prof !11

15:                                               ; preds = %12
  %16 = add nsw i32 %13, -1
  store i32 %16, ptr %2, align 4, !tbaa !4
  br label %lean_dec.exit13

17:                                               ; preds = %12
  %.not.i = icmp eq i32 %13, 0
  br i1 %.not.i, label %lean_dec.exit13, label %18

18:                                               ; preds = %17
  tail call void @lean_dec_ref_cold(ptr noundef nonnull %2) #7
  br label %lean_dec.exit13

lean_dec.exit13:                                  ; preds = %18, %17, %15, %8
  %19 = tail call ptr @l_Lean_PersistentHashMap_insertAux_traverse___rarg(ptr noundef %0, ptr noundef %1, i64 noundef %.val, ptr noundef %3, ptr noundef %4, ptr poison, ptr noundef %6, ptr noundef %7)
  %20 = ptrtoint ptr %4 to i64
  %21 = and i64 %20, 1
  %.not18 = icmp eq i64 %21, 0
  br i1 %.not18, label %22, label %lean_dec.exit12

22:                                               ; preds = %lean_dec.exit13
  %23 = load i32, ptr %4, align 4, !tbaa !4
  %24 = icmp sgt i32 %23, 1
  br i1 %24, label %25, label %27, !prof !11

25:                                               ; preds = %22
  %26 = add nsw i32 %23, -1
  store i32 %26, ptr %4, align 4, !tbaa !4
  br label %lean_dec.exit12

27:                                               ; preds = %22
  %.not.i14 = icmp eq i32 %23, 0
  br i1 %.not.i14, label %lean_dec.exit12, label %28

28:                                               ; preds = %27
  tail call void @lean_dec_ref_cold(ptr noundef nonnull %4) #7
  br label %lean_dec.exit12

lean_dec.exit12:                                  ; preds = %28, %27, %25, %lean_dec.exit13
  %29 = ptrtoint ptr %3 to i64
  %30 = and i64 %29, 1
  %.not19 = icmp eq i64 %30, 0
  br i1 %.not19, label %31, label %lean_dec.exit

31:                                               ; preds = %lean_dec.exit12
  %32 = load i32, ptr %3, align 4, !tbaa !4
  %33 = icmp sgt i32 %32, 1
  br i1 %33, label %34, label %36, !prof !11

34:                                               ; preds = %31
  %35 = add nsw i32 %32, -1
  store i32 %35, ptr %3, align 4, !tbaa !4
  br label %lean_dec.exit

36:                                               ; preds = %31
  %.not.i16 = icmp eq i32 %32, 0
  br i1 %.not.i16, label %lean_dec.exit, label %37

37:                                               ; preds = %36
  tail call void @lean_dec_ref_cold(ptr noundef nonnull %3) #7
  br label %lean_dec.exit

lean_dec.exit:                                    ; preds = %37, %36, %34, %lean_dec.exit12
  ret ptr %19
}